; ModuleID = '45/222.c'
source_filename = "45/222.c"
target datalayout = "e-m:e-p270:32:32-p271:32:32-p272:64:64-i64:64-f80:128-n8:16:32:64-S128"
target triple = "x86_64-pc-linux-gnu"

@.str = private unnamed_addr constant [4 x i8] c"%d\0A\00", align 1

; Function Attrs: noinline nounwind uwtable
define dso_local void @main() #0 {
  %1 = alloca i32, align 4
  %2 = alloca i32, align 4
  %3 = alloca i32, align 4
  %4 = alloca i32, align 4
  %5 = alloca [50 x i8], align 16
  %6 = alloca [50 x i8], align 16
  store i32 0, i32* %1, align 4
  br label %7

7:                                                ; preds = %21, %0
  %8 = call i32 @getchar()
  %9 = trunc i32 %8 to i8
  %10 = load i32, i32* %1, align 4
  %11 = sext i32 %10 to i64
  %12 = getelementptr inbounds [50 x i8], [50 x i8]* %5, i64 0, i64 %11
  store i8 %9, i8* %12, align 1
  %13 = load i32, i32* %1, align 4
  %14 = sext i32 %13 to i64
  %15 = getelementptr inbounds [50 x i8], [50 x i8]* %5, i64 0, i64 %14
  %16 = load i8, i8* %15, align 1
  %17 = sext i8 %16 to i32
  %18 = icmp eq i32 %17, 32
  br i1 %18, label %19, label %20

19:                                               ; preds = %7
  br label %24

20:                                               ; preds = %7
  br label %21

21:                                               ; preds = %20
  %22 = load i32, i32* %1, align 4
  %23 = add nsw i32 %22, 1
  store i32 %23, i32* %1, align 4
  br label %7

24:                                               ; preds = %19
  %25 = getelementptr inbounds [50 x i8], [50 x i8]* %6, i64 0, i64 0
  %26 = call i32 (i8*, ...) bitcast (i32 (...)* @gets to i32 (i8*, ...)*)(i8* %25)
  %27 = getelementptr inbounds [50 x i8], [50 x i8]* %6, i64 0, i64 0
  %28 = call i64 @strlen(i8* %27) #3
  %29 = trunc i64 %28 to i32
  store i32 %29, i32* %2, align 4
  store i32 0, i32* %3, align 4
  br label %30

30:                                               ; preds = %73, %24
  %31 = load i32, i32* %3, align 4
  %32 = load i32, i32* %2, align 4
  %33 = load i32, i32* %1, align 4
  %34 = sub nsw i32 %32, %33
  %35 = icmp sle i32 %31, %34
  br i1 %35, label %36, label %76

36:                                               ; preds = %30
  store i32 0, i32* %4, align 4
  br label %37

37:                                               ; preds = %61, %36
  %38 = load i32, i32* %4, align 4
  %39 = sext i32 %38 to i64
  %40 = getelementptr inbounds [50 x i8], [50 x i8]* %5, i64 0, i64 %39
  %41 = load i8, i8* %40, align 1
  %42 = sext i8 %41 to i32
  %43 = load i32, i32* %3, align 4
  %44 = sext i32 %43 to i64
  %45 = getelementptr inbounds [50 x i8], [50 x i8]* %6, i64 0, i64 %44
  %46 = load i8, i8* %45, align 1
  %47 = sext i8 %46 to i32
  %48 = icmp eq i32 %42, %47
  br i1 %48, label %49, label %66

49:                                               ; preds = %37
  %50 = load i32, i32* %4, align 4
  %51 = load i32, i32* %1, align 4
  %52 = sub nsw i32 %51, 1
  %53 = icmp eq i32 %50, %52
  br i1 %53, label %54, label %60

54:                                               ; preds = %49
  %55 = load i32, i32* %3, align 4
  %56 = load i32, i32* %1, align 4
  %57 = sub nsw i32 %55, %56
  %58 = add nsw i32 %57, 1
  %59 = call i32 (i8*, ...) @printf(i8* getelementptr inbounds ([4 x i8], [4 x i8]* @.str, i64 0, i64 0), i32 %58)
  br label %66

60:                                               ; preds = %49
  br label %61

61:                                               ; preds = %60
  %62 = load i32, i32* %4, align 4
  %63 = add nsw i32 %62, 1
  store i32 %63, i32* %4, align 4
  %64 = load i32, i32* %3, align 4
  %65 = add nsw i32 %64, 1
  store i32 %65, i32* %3, align 4
  br label %37

66:                                               ; preds = %54, %37
  %67 = load i32, i32* %4, align 4
  %68 = load i32, i32* %1, align 4
  %69 = sub nsw i32 %68, 1
  %70 = icmp eq i32 %67, %69
  br i1 %70, label %71, label %72

71:                                               ; preds = %66
  br label %76

72:                                               ; preds = %66
  br label %73

73:                                               ; preds = %72
  %74 = load i32, i32* %3, align 4
  %75 = add nsw i32 %74, 1
  store i32 %75, i32* %3, align 4
  br label %30

76:                                               ; preds = %71, %30
  ret void
}

declare dso_local i32 @getchar() #1

declare dso_local i32 @gets(...) #1

; Function Attrs: nounwind readonly
declare dso_local i64 @strlen(i8*) #2

declare dso_local i32 @printf(i8*, ...) #1


!llvm.module.flags = !{!0}
!llvm.ident = !{!1}

!0 = !{i32 1, !"wchar_size", i32 4}
!1 = !{!"clang version 10.0.0-4ubuntu1 "}
